; Function Attrs: nounwind sspstrong uwtable
define internal i64 @ossl_dsa_export(i32 noundef %0, ptr noundef %1, i64 noundef %2) #0 {
  %4 = alloca ptr, align 8
  %5 = tail call ptr @rb_check_typeddata(i64 noundef %2, ptr noundef nonnull @ossl_evp_pkey_type) #5
  %.not = icmp eq ptr %5, null
  br i1 %.not, label %6, label %8

6:                                                ; preds = %3
  %7 = load i64, ptr @rb_eRuntimeError, align 8, !tbaa !6
  tail call void (i64, ptr, ...) @rb_raise(i64 noundef %7, ptr noundef nonnull @.str.23) #6
  unreachable

8:                                                ; preds = %3
  %9 = tail call i32 @EVP_PKEY_get_base_id(ptr noundef nonnull %5) #5
  %.not10 = icmp eq i32 %9, 116
  br i1 %.not10, label %12, label %10

10:                                               ; preds = %8
  %11 = load i64, ptr @rb_eRuntimeError, align 8, !tbaa !6
  tail call void (i64, ptr, ...) @ossl_raise(i64 noundef %11, ptr noundef nonnull @.str.24) #6
  unreachable

12:                                               ; preds = %8
  %13 = tail call ptr @EVP_PKEY_get0_DSA(ptr noundef nonnull %5) #5
  call void @llvm.lifetime.start.p0(i64 8, ptr nonnull %4) #5
  call void @DSA_get0_key(ptr noundef %13, ptr noundef null, ptr noundef nonnull %4) #5
  %14 = load ptr, ptr %4, align 8, !tbaa !19
  %.not12 = icmp eq ptr %14, null
  call void @llvm.lifetime.end.p0(i64 8, ptr nonnull %4) #5
  br i1 %.not12, label %17, label %15

15:                                               ; preds = %12
  %16 = call i64 @ossl_pkey_export_traditional(i32 noundef %0, ptr noundef %1, i64 noundef %2, i32 noundef 0) #5
  br label %19

17:                                               ; preds = %12
  %18 = call i64 @ossl_pkey_export_spki(i64 noundef %2, i32 noundef 0) #5
  br label %19

19:                                               ; preds = %17, %15
  %.0 = phi i64 [ %16, %15 ], [ %18, %17 ]
  ret i64 %.0
}